target datalayout = "e-m:e-p270:32:32-p271:32:32-p272:64:64-i64:64-i128:128-f80:128-n8:16:32:64-S128"
target triple = "x86_64-unknown-linux-gnu"

%"class.std::set.0" = type { %"class.std::_Rb_tree.1" }
%"class.std::_Rb_tree.1" = type { %"struct.std::_Rb_tree<QuantLib::Observer *, QuantLib::Observer *, std::_Identity<QuantLib::Observer *>, std::less<QuantLib::Observer *>>::_Rb_tree_impl" }
%"struct.std::_Rb_tree<QuantLib::Observer *, QuantLib::Observer *, std::_Identity<QuantLib::Observer *>, std::less<QuantLib::Observer *>>::_Rb_tree_impl" = type { [8 x i8], %"struct.std::_Rb_tree_header" }
%"struct.std::_Rb_tree_header" = type { %"struct.std::_Rb_tree_node_base", i64 }
%"struct.std::_Rb_tree_node_base" = type { i32, ptr, ptr, ptr }
%"class.QuantLib::Date" = type { i64 }
%"class.boost::detail::shared_count" = type { ptr }
%"class.std::set" = type { %"class.std::_Rb_tree" }
%"class.std::_Rb_tree" = type { %"struct.std::_Rb_tree<boost::shared_ptr<QuantLib::Observable>, boost::shared_ptr<QuantLib::Observable>, std::_Identity<boost::shared_ptr<QuantLib::Observable>>, std::less<boost::shared_ptr<QuantLib::Observable>>>::_Rb_tree_impl" }
%"struct.std::_Rb_tree<boost::shared_ptr<QuantLib::Observable>, boost::shared_ptr<QuantLib::Observable>, std::_Identity<boost::shared_ptr<QuantLib::Observable>>, std::less<boost::shared_ptr<QuantLib::Observable>>>::_Rb_tree_impl" = type { [8 x i8], %"struct.std::_Rb_tree_header" }
%"class.QuantLib::Observable" = type { ptr, %"class.std::set.0" }
%"class.QuantLib::DayCounter" = type { %"class.boost::shared_ptr.6" }
%"class.boost::shared_ptr.6" = type { ptr, %"class.boost::detail::shared_count" }
%"class.QuantLib::Extrapolator.base" = type <{ ptr, i8 }>
%"class.QuantLib::Calendar" = type { %"class.boost::shared_ptr.7" }
%"class.boost::shared_ptr.7" = type { ptr, %"class.boost::detail::shared_count" }
%"class.QuantLib::Observer" = type { ptr, %"class.std::set" }
%"class.QuantLib::TermStructure.base" = type { %"class.QuantLib::Extrapolator.base", i8, i8, %"class.QuantLib::Calendar", %"class.QuantLib::Date", i32, %"class.QuantLib::DayCounter" }
%"class.QuantLib::CapFloorTermVolCurve" = type { %"class.QuantLib::LazyObject.base", [4 x i8], %"class.QuantLib::CapFloorTermVolatilityStructure.base", i64, %"class.std::vector", %"class.std::vector.11", %"class.std::vector.16", %"class.QuantLib::Date", %"class.std::vector.21", %"class.std::vector.16", %"class.QuantLib::Interpolation", %"class.QuantLib::Observable", %"class.QuantLib::Observer" }
%"class.QuantLib::LazyObject.base" = type <{ ptr, i8, i8, i8, i8 }>
%"class.QuantLib::CapFloorTermVolatilityStructure.base" = type { %"class.QuantLib::VolatilityTermStructure.base" }
%"class.QuantLib::VolatilityTermStructure.base" = type <{ %"class.QuantLib::TermStructure.base", i32 }>
%"class.std::vector" = type { %"struct.std::_Vector_base" }
%"struct.std::_Vector_base" = type { %"struct.std::_Vector_base<QuantLib::Period, std::allocator<QuantLib::Period>>::_Vector_impl" }
%"struct.std::_Vector_base<QuantLib::Period, std::allocator<QuantLib::Period>>::_Vector_impl" = type { %"struct.std::_Vector_base<QuantLib::Period, std::allocator<QuantLib::Period>>::_Vector_impl_data" }
%"struct.std::_Vector_base<QuantLib::Period, std::allocator<QuantLib::Period>>::_Vector_impl_data" = type { ptr, ptr, ptr }
%"class.std::vector.11" = type { %"struct.std::_Vector_base.12" }
%"struct.std::_Vector_base.12" = type { %"struct.std::_Vector_base<QuantLib::Date, std::allocator<QuantLib::Date>>::_Vector_impl" }
%"struct.std::_Vector_base<QuantLib::Date, std::allocator<QuantLib::Date>>::_Vector_impl" = type { %"struct.std::_Vector_base<QuantLib::Date, std::allocator<QuantLib::Date>>::_Vector_impl_data" }
%"struct.std::_Vector_base<QuantLib::Date, std::allocator<QuantLib::Date>>::_Vector_impl_data" = type { ptr, ptr, ptr }
%"class.std::vector.21" = type { %"struct.std::_Vector_base.22" }
%"struct.std::_Vector_base.22" = type { %"struct.std::_Vector_base<QuantLib::Handle<QuantLib::Quote>, std::allocator<QuantLib::Handle<QuantLib::Quote>>>::_Vector_impl" }
%"struct.std::_Vector_base<QuantLib::Handle<QuantLib::Quote>, std::allocator<QuantLib::Handle<QuantLib::Quote>>>::_Vector_impl" = type { %"struct.std::_Vector_base<QuantLib::Handle<QuantLib::Quote>, std::allocator<QuantLib::Handle<QuantLib::Quote>>>::_Vector_impl_data" }
%"struct.std::_Vector_base<QuantLib::Handle<QuantLib::Quote>, std::allocator<QuantLib::Handle<QuantLib::Quote>>>::_Vector_impl_data" = type { ptr, ptr, ptr }
%"class.std::vector.16" = type { %"struct.std::_Vector_base.17" }
%"struct.std::_Vector_base.17" = type { %"struct.std::_Vector_base<double, std::allocator<double>>::_Vector_impl" }
%"struct.std::_Vector_base<double, std::allocator<double>>::_Vector_impl" = type { %"struct.std::_Vector_base<double, std::allocator<double>>::_Vector_impl_data" }
%"struct.std::_Vector_base<double, std::allocator<double>>::_Vector_impl_data" = type { ptr, ptr, ptr }
%"class.QuantLib::Interpolation" = type { %"class.QuantLib::Extrapolator.base", %"class.boost::shared_ptr.26" }
%"class.boost::shared_ptr.26" = type { ptr, %"class.boost::detail::shared_count" }
%"class.QuantLib::Handle" = type { %"class.boost::shared_ptr.31" }
%"class.boost::shared_ptr.31" = type { ptr, %"class.boost::detail::shared_count" }
%"class.boost::shared_ptr.32" = type { ptr, %"class.boost::detail::shared_count" }

@.str.14 = private unnamed_addr constant [8 x i8] c"px != 0\00", align 1
@.str.15 = private unnamed_addr constant [102 x i8] c"generated/home/dtcxzyw/WorkSpace/SDK/vcpkg/installed/x64-linux/include/boost/smart_ptr/shared_ptr.hpp\00", align 1
@__PRETTY_FUNCTION__._ZNK5boost10shared_ptrIN8QuantLib13Interpolation4ImplEEptEv = private unnamed_addr constant [155 x i8] c"typename boost::detail::sp_member_access<T>::type boost::shared_ptr<QuantLib::Interpolation::Impl>::operator->() const [T = QuantLib::Interpolation::Impl]\00", align 1
@__PRETTY_FUNCTION__._ZNK5boost10shared_ptrIN8QuantLib5QuoteEEptEv = private unnamed_addr constant [127 x i8] c"typename boost::detail::sp_member_access<T>::type boost::shared_ptr<QuantLib::Quote>::operator->() const [T = QuantLib::Quote]\00", align 1

; Function Attrs: mustprogress uwtable
define linkonce_odr noundef ptr @_ZNK5boost10shared_ptrIN8QuantLib13Interpolation4ImplEEptEv(ptr noundef nonnull align 8 dereferenceable(16) %this) #2 comdat align 2 {
entry:
  %this.addr = alloca ptr, align 8
  store ptr %this, ptr %this.addr, align 8, !tbaa !3
  %this1 = load ptr, ptr %this.addr, align 8
  %px = getelementptr inbounds nuw %"class.boost::shared_ptr.26", ptr %this1, i32 0, i32 0
  %0 = load ptr, ptr %px, align 8, !tbaa !130
  %cmp = icmp ne ptr %0, null
  %lnot = xor i1 %cmp, true
  %lnot2 = xor i1 %lnot, true
  %conv = zext i1 %lnot2 to i64
  %expval = call i64 @llvm.expect.i64(i64 %conv, i64 1)
  %tobool = icmp ne i64 %expval, 0
  br i1 %tobool, label %cond.true, label %cond.false

cond.true:                                        ; preds = %entry
  br label %cond.end

cond.false:                                       ; preds = %entry
  call void @_ZN5boost16assertion_failedEPKcS1_S1_l(ptr noundef @.str.14, ptr noundef @__PRETTY_FUNCTION__._ZNK5boost10shared_ptrIN8QuantLib13Interpolation4ImplEEptEv, ptr noundef @.str.15, i64 noundef 784)
  br label %cond.end

cond.end:                                         ; preds = %cond.false, %cond.true
  %px3 = getelementptr inbounds nuw %"class.boost::shared_ptr.26", ptr %this1, i32 0, i32 0
  %1 = load ptr, ptr %px3, align 8, !tbaa !130
  ret ptr %1
}

; Function Attrs: mustprogress uwtable
define linkonce_odr void @_ZN8QuantLib13Interpolation6updateEv(ptr noundef nonnull align 8 dereferenceable(32) %this) #2 comdat align 2 {
entry:
  %this.addr = alloca ptr, align 8
  store ptr %this, ptr %this.addr, align 8, !tbaa !3
  %this1 = load ptr, ptr %this.addr, align 8
  %impl_ = getelementptr inbounds nuw %"class.QuantLib::Interpolation", ptr %this1, i32 0, i32 1
  %call = call noundef ptr @_ZNK5boost10shared_ptrIN8QuantLib13Interpolation4ImplEEptEv(ptr noundef nonnull align 8 dereferenceable(16) %impl_)
  %vtable = load ptr, ptr %call, align 8, !tbaa !32
  %vfn = getelementptr inbounds ptr, ptr %vtable, i64 2
  %0 = load ptr, ptr %vfn, align 8
  call void %0(ptr noundef nonnull align 8 dereferenceable(8) %call)
  ret void
}

; Function Attrs: mustprogress nounwind uwtable
define linkonce_odr noundef nonnull align 8 dereferenceable(8) ptr @_ZNSt6vectorIdSaIdEEixEm(ptr noundef nonnull align 8 dereferenceable(24) %this, i64 noundef %__n) #1 comdat align 2 {
entry:
  %this.addr = alloca ptr, align 8
  %__n.addr = alloca i64, align 8
  store ptr %this, ptr %this.addr, align 8, !tbaa !3
  store i64 %__n, ptr %__n.addr, align 8, !tbaa !65
  %this1 = load ptr, ptr %this.addr, align 8
  %_M_impl = getelementptr inbounds nuw %"struct.std::_Vector_base.17", ptr %this1, i32 0, i32 0
  %_M_start = getelementptr inbounds nuw %"struct.std::_Vector_base<double, std::allocator<double>>::_Vector_impl_data", ptr %_M_impl, i32 0, i32 0
  %0 = load ptr, ptr %_M_start, align 8, !tbaa !73
  %1 = load i64, ptr %__n.addr, align 8, !tbaa !65
  %add.ptr = getelementptr inbounds nuw double, ptr %0, i64 %1
  ret ptr %add.ptr
}

; Function Attrs: mustprogress uwtable
define linkonce_odr noundef ptr @_ZNK5boost10shared_ptrIN8QuantLib5QuoteEEptEv(ptr noundef nonnull align 8 dereferenceable(16) %this) #2 comdat align 2 {
entry:
  %this.addr = alloca ptr, align 8
  store ptr %this, ptr %this.addr, align 8, !tbaa !3
  %this1 = load ptr, ptr %this.addr, align 8
  %px = getelementptr inbounds nuw %"class.boost::shared_ptr.32", ptr %this1, i32 0, i32 0
  %0 = load ptr, ptr %px, align 8, !tbaa !78
  %cmp = icmp ne ptr %0, null
  %lnot = xor i1 %cmp, true
  %lnot2 = xor i1 %lnot, true
  %conv = zext i1 %lnot2 to i64
  %expval = call i64 @llvm.expect.i64(i64 %conv, i64 1)
  %tobool = icmp ne i64 %expval, 0
  br i1 %tobool, label %cond.true, label %cond.false

cond.true:                                        ; preds = %entry
  br label %cond.end

cond.false:                                       ; preds = %entry
  call void @_ZN5boost16assertion_failedEPKcS1_S1_l(ptr noundef @.str.14, ptr noundef @__PRETTY_FUNCTION__._ZNK5boost10shared_ptrIN8QuantLib5QuoteEEptEv, ptr noundef @.str.15, i64 noundef 784)
  br label %cond.end

cond.end:                                         ; preds = %cond.false, %cond.true
  %px3 = getelementptr inbounds nuw %"class.boost::shared_ptr.32", ptr %this1, i32 0, i32 0
  %1 = load ptr, ptr %px3, align 8, !tbaa !78
  ret ptr %1
}

; Function Attrs: mustprogress nounwind uwtable
define linkonce_odr noundef nonnull align 8 dereferenceable(16) ptr @_ZNKSt6vectorIN8QuantLib6HandleINS0_5QuoteEEESaIS3_EEixEm(ptr noundef nonnull align 8 dereferenceable(24) %this, i64 noundef %__n) #1 comdat align 2 {
entry:
  %this.addr = alloca ptr, align 8
  %__n.addr = alloca i64, align 8
  store ptr %this, ptr %this.addr, align 8, !tbaa !3
  store i64 %__n, ptr %__n.addr, align 8, !tbaa !65
  %this1 = load ptr, ptr %this.addr, align 8
  %_M_impl = getelementptr inbounds nuw %"struct.std::_Vector_base.22", ptr %this1, i32 0, i32 0
  %_M_start = getelementptr inbounds nuw %"struct.std::_Vector_base<QuantLib::Handle<QuantLib::Quote>, std::allocator<QuantLib::Handle<QuantLib::Quote>>>::_Vector_impl_data", ptr %_M_impl, i32 0, i32 0
  %0 = load ptr, ptr %_M_start, align 8, !tbaa !66
  %1 = load i64, ptr %__n.addr, align 8, !tbaa !65
  %add.ptr = getelementptr inbounds nuw %"class.QuantLib::Handle", ptr %0, i64 %1
  ret ptr %add.ptr
}

; Function Attrs: mustprogress nounwind uwtable
define linkonce_odr noundef i64 @_ZNKSt6vectorIdSaIdEE4sizeEv(ptr noundef nonnull align 8 dereferenceable(24) %this) #1 comdat align 2 {
entry:
  %this.addr = alloca ptr, align 8
  store ptr %this, ptr %this.addr, align 8, !tbaa !3
  %this1 = load ptr, ptr %this.addr, align 8
  %_M_impl = getelementptr inbounds nuw %"struct.std::_Vector_base.17", ptr %this1, i32 0, i32 0
  %_M_finish = getelementptr inbounds nuw %"struct.std::_Vector_base<double, std::allocator<double>>::_Vector_impl_data", ptr %_M_impl, i32 0, i32 1
  %0 = load ptr, ptr %_M_finish, align 8, !tbaa !74
  %_M_impl2 = getelementptr inbounds nuw %"struct.std::_Vector_base.17", ptr %this1, i32 0, i32 0
  %_M_start = getelementptr inbounds nuw %"struct.std::_Vector_base<double, std::allocator<double>>::_Vector_impl_data", ptr %_M_impl2, i32 0, i32 0
  %1 = load ptr, ptr %_M_start, align 8, !tbaa !73
  %sub.ptr.lhs.cast = ptrtoint ptr %0 to i64
  %sub.ptr.rhs.cast = ptrtoint ptr %1 to i64
  %sub.ptr.sub = sub i64 %sub.ptr.lhs.cast, %sub.ptr.rhs.cast
  %sub.ptr.div = sdiv exact i64 %sub.ptr.sub, 8
  ret i64 %sub.ptr.div
}

; Function Attrs: mustprogress uwtable
define void @_ZNK8QuantLib20CapFloorTermVolCurve19performCalculationsEv(ptr noundef nonnull align 8 dereferenceable(256) %this) unnamed_addr #2 align 2 {
entry:
  %this.addr = alloca ptr, align 8
  %i = alloca i64, align 8
  store ptr %this, ptr %this.addr, align 8, !tbaa !3
  %this1 = load ptr, ptr %this.addr, align 8
  call void @llvm.lifetime.start.p0(i64 8, ptr %i) #15
  store i64 0, ptr %i, align 8, !tbaa !65
  br label %for.cond

for.cond:                                         ; preds = %for.inc, %entry
  %0 = load i64, ptr %i, align 8, !tbaa !65
  %vols_ = getelementptr inbounds nuw %"class.QuantLib::CapFloorTermVolCurve", ptr %this1, i32 0, i32 9
  %call = call noundef i64 @_ZNKSt6vectorIdSaIdEE4sizeEv(ptr noundef nonnull align 8 dereferenceable(24) %vols_) #15
  %cmp = icmp ult i64 %0, %call
  br i1 %cmp, label %for.body, label %for.cond.cleanup

for.cond.cleanup:                                 ; preds = %for.cond
  call void @llvm.lifetime.end.p0(i64 8, ptr %i) #15
  br label %for.end

for.body:                                         ; preds = %for.cond
  %volHandles_ = getelementptr inbounds nuw %"class.QuantLib::CapFloorTermVolCurve", ptr %this1, i32 0, i32 8
  %1 = load i64, ptr %i, align 8, !tbaa !65
  %call2 = call noundef nonnull align 8 dereferenceable(16) ptr @_ZNKSt6vectorIN8QuantLib6HandleINS0_5QuoteEEESaIS3_EEixEm(ptr noundef nonnull align 8 dereferenceable(24) %volHandles_, i64 noundef %1) #15
  %call3 = call noundef nonnull align 8 dereferenceable(16) ptr @_ZNK8QuantLib6HandleINS_5QuoteEEptEv(ptr noundef nonnull align 8 dereferenceable(16) %call2)
  %call4 = call noundef ptr @_ZNK5boost10shared_ptrIN8QuantLib5QuoteEEptEv(ptr noundef nonnull align 8 dereferenceable(16) %call3)
  %vtable = load ptr, ptr %call4, align 8, !tbaa !32
  %vfn = getelementptr inbounds ptr, ptr %vtable, i64 2
  %2 = load ptr, ptr %vfn, align 8
  %call5 = call noundef double %2(ptr noundef nonnull align 8 dereferenceable(8) %call4)
  %vols_6 = getelementptr inbounds nuw %"class.QuantLib::CapFloorTermVolCurve", ptr %this1, i32 0, i32 9
  %3 = load i64, ptr %i, align 8, !tbaa !65
  %call7 = call noundef nonnull align 8 dereferenceable(8) ptr @_ZNSt6vectorIdSaIdEEixEm(ptr noundef nonnull align 8 dereferenceable(24) %vols_6, i64 noundef %3) #15
  store double %call5, ptr %call7, align 8, !tbaa !71
  br label %for.inc

for.inc:                                          ; preds = %for.body
  %4 = load i64, ptr %i, align 8, !tbaa !65
  %inc = add i64 %4, 1
  store i64 %inc, ptr %i, align 8, !tbaa !65
  br label %for.cond, !llvm.loop !94

for.end:                                          ; preds = %for.cond.cleanup
  %interpolation_ = getelementptr inbounds nuw %"class.QuantLib::CapFloorTermVolCurve", ptr %this1, i32 0, i32 10
  call void @_ZN8QuantLib13Interpolation6updateEv(ptr noundef nonnull align 8 dereferenceable(32) %interpolation_)
  ret void
}