; Function Attrs: mustprogress uwtable
define void @_ZNK8QuantLib20CapFloorTermVolCurve19performCalculationsEv(ptr nocapture noundef nonnull readonly align 8 dereferenceable(256) %this) unnamed_addr #8 align 2 {
entry:
  %vols_ = getelementptr inbounds nuw i8, ptr %this, i64 200
  %_M_finish.i = getelementptr inbounds nuw i8, ptr %this, i64 208
  %0 = load ptr, ptr %_M_finish.i, align 8, !tbaa !92
  %1 = load ptr, ptr %vols_, align 8, !tbaa !89
  %cmp9.not = icmp eq ptr %0, %1
  br i1 %cmp9.not, label %for.cond.cleanup, label %for.body.lr.ph

for.body.lr.ph:                                   ; preds = %entry
  %volHandles_ = getelementptr inbounds nuw i8, ptr %this, i64 176
  br label %for.body

for.cond.cleanup:                                 ; preds = %_ZNK5boost10shared_ptrIN8QuantLib5QuoteEEptEv.exit, %entry
  %impl_.i = getelementptr inbounds nuw i8, ptr %this, i64 240
  %2 = load ptr, ptr %impl_.i, align 8, !tbaa !113
  %cmp.not.i.i = icmp eq ptr %2, null
  br i1 %cmp.not.i.i, label %cond.false.i.i, label %_ZN8QuantLib13Interpolation6updateEv.exit, !prof !85

cond.false.i.i:                                   ; preds = %for.cond.cleanup
  tail call void @_ZN5boost16assertion_failedEPKcS1_S1_l(ptr noundef nonnull @.str.14, ptr noundef nonnull @__PRETTY_FUNCTION__._ZNK5boost10shared_ptrIN8QuantLib13Interpolation4ImplEEptEv, ptr noundef nonnull @.str.15, i64 noundef 784)
  %.pre.i.i = load ptr, ptr %impl_.i, align 8, !tbaa !113
  br label %_ZN8QuantLib13Interpolation6updateEv.exit

_ZN8QuantLib13Interpolation6updateEv.exit:        ; preds = %for.cond.cleanup, %cond.false.i.i
  %3 = phi ptr [ %2, %for.cond.cleanup ], [ %.pre.i.i, %cond.false.i.i ]
  %vtable.i = load ptr, ptr %3, align 8, !tbaa !47
  %vfn.i = getelementptr inbounds i8, ptr %vtable.i, i64 16
  %4 = load ptr, ptr %vfn.i, align 8
  tail call void %4(ptr noundef nonnull align 8 dereferenceable(8) %3)
  ret void

for.body:                                         ; preds = %for.body.lr.ph, %_ZNK5boost10shared_ptrIN8QuantLib5QuoteEEptEv.exit
  %i.010 = phi i64 [ 0, %for.body.lr.ph ], [ %inc, %_ZNK5boost10shared_ptrIN8QuantLib5QuoteEEptEv.exit ]
  %5 = load ptr, ptr %volHandles_, align 8, !tbaa !94
  %add.ptr.i = getelementptr inbounds nuw %"class.QuantLib::Handle", ptr %5, i64 %i.010
  %call3 = tail call noundef nonnull align 8 dereferenceable(16) ptr @_ZNK8QuantLib6HandleINS_5QuoteEEptEv(ptr noundef nonnull align 8 dereferenceable(16) %add.ptr.i)
  %6 = load ptr, ptr %call3, align 8, !tbaa !115
  %cmp.not.i = icmp eq ptr %6, null
  br i1 %cmp.not.i, label %cond.false.i, label %_ZNK5boost10shared_ptrIN8QuantLib5QuoteEEptEv.exit, !prof !85

cond.false.i:                                     ; preds = %for.body
  tail call void @_ZN5boost16assertion_failedEPKcS1_S1_l(ptr noundef nonnull @.str.14, ptr noundef nonnull @__PRETTY_FUNCTION__._ZNK5boost10shared_ptrIN8QuantLib5QuoteEEptEv, ptr noundef nonnull @.str.15, i64 noundef 784)
  %.pre.i = load ptr, ptr %call3, align 8, !tbaa !115
  br label %_ZNK5boost10shared_ptrIN8QuantLib5QuoteEEptEv.exit

_ZNK5boost10shared_ptrIN8QuantLib5QuoteEEptEv.exit: ; preds = %for.body, %cond.false.i
  %7 = phi ptr [ %6, %for.body ], [ %.pre.i, %cond.false.i ]
  %vtable = load ptr, ptr %7, align 8, !tbaa !47
  %vfn = getelementptr inbounds i8, ptr %vtable, i64 16
  %8 = load ptr, ptr %vfn, align 8
  %call5 = tail call noundef double %8(ptr noundef nonnull align 8 dereferenceable(8) %7)
  %9 = load ptr, ptr %vols_, align 8, !tbaa !89
  %add.ptr.i4 = getelementptr inbounds nuw double, ptr %9, i64 %i.010
  store double %call5, ptr %add.ptr.i4, align 8, !tbaa !91
  %inc = add nuw i64 %i.010, 1
  %10 = load ptr, ptr %_M_finish.i, align 8, !tbaa !92
  %sub.ptr.lhs.cast.i = ptrtoint ptr %10 to i64
  %sub.ptr.rhs.cast.i = ptrtoint ptr %9 to i64
  %sub.ptr.sub.i = sub i64 %sub.ptr.lhs.cast.i, %sub.ptr.rhs.cast.i
  %sub.ptr.div.i = ashr exact i64 %sub.ptr.sub.i, 3
  %cmp = icmp ult i64 %inc, %sub.ptr.div.i
  br i1 %cmp, label %for.body, label %for.cond.cleanup, !llvm.loop !132
}